
Allocating common symbols
Common symbol       size              file

mbox                0x90              build/./uart.o
CHUNK_BUFFER        0x800             build/./entry.o

Memory Configuration

Name             Origin             Length             Attributes
RAM              0x0000000000000000 0x0000000040000000 xrw
*default*        0x0000000000000000 0xffffffffffffffff

Linker script and memory map

LOAD build/./entry.o
LOAD build/./uart.o
LOAD build/boot.o
                0x0000000000000008                PAGE_SIZE = 0x8
                0x0000000000004000                EL2_STACK_SIZE = 0x4000
                0x0000000000000400                EL1_STACK_SIZE = 0x400
                0x0000000000000400                EL0_STACK_SIZE = 0x400
                0x0000000000000010                CANARY_SIZE = 0x10
                0x0000000000000000                __start = .

.text           0x0000000000000000      0x96c
                0x0000000000000000                __text_start = .
 *(.text.boot)
 .text.boot     0x0000000000000000       0xc0 build/boot.o
                0x0000000000000000                _start
 *(.text .text.* .gnu.linkonce.t.*)
 .text          0x00000000000000c0      0x554 build/./entry.o
                0x00000000000000c0                entry
                0x00000000000000d4                high_entry
                0x00000000000001b0                get_int
                0x0000000000000228                checksum
                0x0000000000000284                cmd_echo
                0x00000000000002c4                cmd_setup_transfer
                0x0000000000000314                memcpy
                0x0000000000000380                cmd_write_chunk
                0x000000000000047c                cmd_finalize_transfer
                0x00000000000004dc                cmd_jump_addr
                0x0000000000000518                wait_core
                0x0000000000000548                park_aux_cores
                0x00000000000005a0                relocate_bootloader
 .text          0x0000000000000614      0x358 build/./uart.o
                0x0000000000000614                mbox_call
                0x00000000000006e0                uart_init
                0x0000000000000884                uart_putc
                0x00000000000008dc                uart_getc
                0x0000000000000918                uart_puts
 .text          0x000000000000096c        0x0 build/boot.o
 *(.rel.text .rel.text.* .rel.gnu.linkonce.t.*)
 *(.init .init.*)
                0x000000000000096c                __text_end = .

.iplt           0x000000000000096c        0x0
 .iplt          0x0000000000000000        0x0 build/./entry.o

.rela.dyn       0x0000000000000970        0x0
 .rela.iplt     0x0000000000000000        0x0 build/./entry.o
 .rela.got      0x0000000000000000        0x0 build/./entry.o

.rodata         0x0000000000000970        0x0
                0x0000000000000970                __rodata_start = .
 *(.rodata .rodata.*)
 *(.rel.rodata .rel.rodata.* .rel.gnu.linkonce.r.*)
 *(.rodata)
                0x0000000000000970                __rodata_end = .

.data           0x0000000000000970       0x50
                0x0000000000000970                __data_start = .
 *(.data .data.* .gnu.linkonce.d.*)
 .data          0x0000000000000970       0x20 build/./entry.o
                0x0000000000000970                parked_fcn
                0x0000000000000978                cores_ready
                0x0000000000000988                core_mask
 .data.rel.ro   0x0000000000000990       0x30 build/./entry.o
 .data          0x00000000000009c0        0x0 build/./uart.o
 .data          0x00000000000009c0        0x0 build/boot.o
 *(.rel.data .rel.data.* .rel.gnu.linkonce.d.*)
                0x00000000000009c0                . = ALIGN (0x4)

.igot.plt       0x00000000000009c0        0x0
 .igot.plt      0x0000000000000000        0x0 build/./entry.o

.got            0x00000000000009c0       0x38
 .got           0x00000000000009c0       0x38 build/./entry.o
                0x00000000000009c0                _GLOBAL_OFFSET_TABLE_

.got.plt        0x00000000000009f8       0x18
 .got.plt       0x00000000000009f8       0x18 build/./entry.o

.bss            0x0000000000000a10      0x8b0
                0x0000000000000a10                __bss_start = .
 *(.bss .bss.* .gnu.linkonce.b.*)
 .bss           0x0000000000000a10       0x10 build/./entry.o
 .bss           0x0000000000000a20        0x4 build/./uart.o
 .bss           0x0000000000000a24        0x0 build/boot.o
 *(.rela.bss .rela.bss.* .rela.gnu.linkonce.b.*)
 *(COMMON)
 *fill*         0x0000000000000a24        0x4 
 COMMON         0x0000000000000a28      0x800 build/./entry.o
                0x0000000000000a28                CHUNK_BUFFER
 *fill*         0x0000000000001228        0x8 
 COMMON         0x0000000000001230       0x90 build/./uart.o
                0x0000000000001230                mbox
                0x00000000000012c0                __bss_end = .
                0x00000000000012c0                . = ALIGN (0x8)

.stack          0x00000000000012c0    0x20000
                0x00000000000092c0                . = (. + 0x8000)
 *fill*         0x00000000000012c0     0x8000 
                0x00000000000092c0                __stack0 = .
                0x00000000000112c0                . = (. + 0x8000)
 *fill*         0x00000000000092c0     0x8000 
                0x00000000000112c0                __stack1 = .
                0x00000000000192c0                . = (. + 0x8000)
 *fill*         0x00000000000112c0     0x8000 
                0x00000000000192c0                __stack2 = .
                0x00000000000212c0                . = (. + 0x8000)
 *fill*         0x00000000000192c0     0x8000 
                0x00000000000212c0                __stack3 = .
                0x00000000000212c0                __end = .
                0x00000000000008b0                __bss_size = (__bss_end - __bss_start)
OUTPUT(build/bootloader.elf elf64-littleaarch64)

.debug_info     0x0000000000000000      0x76f
 .debug_info    0x0000000000000000      0x51c build/./entry.o
 .debug_info    0x000000000000051c      0x1d8 build/./uart.o
 .debug_info    0x00000000000006f4       0x7b build/boot.o

.debug_abbrev   0x0000000000000000      0x2b2
 .debug_abbrev  0x0000000000000000      0x196 build/./entry.o
 .debug_abbrev  0x0000000000000196      0x108 build/./uart.o
 .debug_abbrev  0x000000000000029e       0x14 build/boot.o

.debug_aranges  0x0000000000000000       0x90
 .debug_aranges
                0x0000000000000000       0x30 build/./entry.o
 .debug_aranges
                0x0000000000000030       0x30 build/./uart.o
 .debug_aranges
                0x0000000000000060       0x30 build/boot.o

.debug_line     0x0000000000000000      0x2c2
 .debug_line    0x0000000000000000      0x13b build/./entry.o
 .debug_line    0x000000000000013b      0x12c build/./uart.o
 .debug_line    0x0000000000000267       0x5b build/boot.o

.debug_str      0x0000000000000000      0x349
 .debug_str     0x0000000000000000      0x2cf build/./entry.o
                                        0x31e (size before relaxing)
 .debug_str     0x00000000000002cf       0x7a build/./uart.o
                                        0x1c6 (size before relaxing)

.comment        0x0000000000000000       0x11
 .comment       0x0000000000000000       0x11 build/./entry.o
                                         0x12 (size before relaxing)
 .comment       0x0000000000000000       0x12 build/./uart.o

.debug_frame    0x0000000000000000      0x2d8
 .debug_frame   0x0000000000000000      0x208 build/./entry.o
 .debug_frame   0x0000000000000208       0xd0 build/./uart.o
